target datalayout = "e-m:e-p270:32:32-p271:32:32-p272:64:64-i64:64-i128:128-f80:128-n8:16:32:64-S128"
target triple = "x86_64-pc-linux-gnu"

@rfc1867_angle.buf = internal global [35 x i8] zeroinitializer, align 16
@.str.1328 = private unnamed_addr constant [19 x i8] c"Value out of range\00", align 1
@.str.1329 = private unnamed_addr constant [29 x i8] c"%u deg %u min %u.%03u sec %c\00", align 1

; Function Attrs: null_pointer_is_valid sspstrong uwtable
define internal ptr @rfc1867_angle(ptr noundef %0, i32 noundef %1, i1 noundef zeroext %2) #0 {
  %4 = alloca ptr, align 8
  %5 = alloca ptr, align 8
  %6 = alloca i32, align 4
  %7 = alloca i8, align 1
  %8 = alloca i32, align 4
  %9 = alloca i8, align 1
  %10 = alloca i32, align 4
  %11 = alloca i32, align 4
  %12 = alloca i32, align 4
  %13 = alloca i32, align 4
  %14 = alloca i32, align 4
  store ptr %0, ptr %5, align 8
  store i32 %1, ptr %6, align 4
  %15 = zext i1 %2 to i8
  store i8 %15, ptr %7, align 1
  call void @llvm.lifetime.start.p0(i64 4, ptr %8) #11
  call void @llvm.lifetime.start.p0(i64 1, ptr %9) #11
  call void @llvm.lifetime.start.p0(i64 4, ptr %10) #11
  call void @llvm.lifetime.start.p0(i64 4, ptr %11) #11
  call void @llvm.lifetime.start.p0(i64 4, ptr %12) #11
  call void @llvm.lifetime.start.p0(i64 4, ptr %13) #11
  %16 = load ptr, ptr %5, align 8
  %17 = load i32, ptr %6, align 4
  %18 = call i32 @tvb_get_ntohl(ptr noundef %16, i32 noundef %17)
  store i32 %18, ptr %8, align 4
  %19 = load i32, ptr %8, align 4
  %20 = icmp ult i32 %19, -2147483648
  br i1 %20, label %21, label %28

21:                                               ; preds = %3
  %22 = load i32, ptr %8, align 4
  %23 = sub i32 -2147483648, %22
  store i32 %23, ptr %8, align 4
  %24 = load i8, ptr %7, align 1, !range !9, !noundef !10
  %25 = trunc i8 %24 to i1
  %26 = select i1 %25, i32 87, i32 83
  %27 = trunc i32 %26 to i8
  store i8 %27, ptr %9, align 1
  br label %35

28:                                               ; preds = %3
  %29 = load i32, ptr %8, align 4
  %30 = sub i32 %29, -2147483648
  store i32 %30, ptr %8, align 4
  %31 = load i8, ptr %7, align 1, !range !9, !noundef !10
  %32 = trunc i8 %31 to i1
  %33 = select i1 %32, i32 69, i32 78
  %34 = trunc i32 %33 to i8
  store i8 %34, ptr %9, align 1
  br label %35

35:                                               ; preds = %28, %21
  %36 = load i8, ptr %7, align 1, !range !9, !noundef !10
  %37 = trunc i8 %36 to i1
  br i1 %37, label %38, label %41

38:                                               ; preds = %35
  %39 = load i32, ptr %8, align 4
  %40 = icmp ugt i32 %39, 648000000
  br i1 %40, label %44, label %46

41:                                               ; preds = %35
  %42 = load i32, ptr %8, align 4
  %43 = icmp ugt i32 %42, 324000000
  br i1 %43, label %44, label %46

44:                                               ; preds = %41, %38
  %45 = call i32 (ptr, i64, i32, i64, ptr, ...) @__snprintf_chk(ptr noundef @rfc1867_angle.buf, i64 noundef 35, i32 noundef 2, i64 noundef 35, ptr noundef @.str.1328)
  store ptr @rfc1867_angle.buf, ptr %4, align 8
  store i32 1, ptr %14, align 4
  br label %66

46:                                               ; preds = %41, %38
  %47 = load i32, ptr %8, align 4
  %48 = urem i32 %47, 1000
  store i32 %48, ptr %13, align 4
  %49 = load i32, ptr %8, align 4
  %50 = udiv i32 %49, 1000
  store i32 %50, ptr %8, align 4
  %51 = load i32, ptr %8, align 4
  %52 = urem i32 %51, 60
  store i32 %52, ptr %12, align 4
  %53 = load i32, ptr %8, align 4
  %54 = udiv i32 %53, 60
  store i32 %54, ptr %8, align 4
  %55 = load i32, ptr %8, align 4
  %56 = urem i32 %55, 60
  store i32 %56, ptr %11, align 4
  %57 = load i32, ptr %8, align 4
  %58 = udiv i32 %57, 60
  store i32 %58, ptr %10, align 4
  %59 = load i32, ptr %10, align 4
  %60 = load i32, ptr %11, align 4
  %61 = load i32, ptr %12, align 4
  %62 = load i32, ptr %13, align 4
  %63 = load i8, ptr %9, align 1
  %64 = sext i8 %63 to i32
  %65 = call i32 (ptr, i64, i32, i64, ptr, ...) @__snprintf_chk(ptr noundef @rfc1867_angle.buf, i64 noundef 35, i32 noundef 2, i64 noundef 35, ptr noundef @.str.1329, i32 noundef %59, i32 noundef %60, i32 noundef %61, i32 noundef %62, i32 noundef %64)
  store ptr @rfc1867_angle.buf, ptr %4, align 8
  store i32 1, ptr %14, align 4
  br label %66

66:                                               ; preds = %46, %44
  call void @llvm.lifetime.end.p0(i64 4, ptr %13) #11
  call void @llvm.lifetime.end.p0(i64 4, ptr %12) #11
  call void @llvm.lifetime.end.p0(i64 4, ptr %11) #11
  call void @llvm.lifetime.end.p0(i64 4, ptr %10) #11
  call void @llvm.lifetime.end.p0(i64 1, ptr %9) #11
  call void @llvm.lifetime.end.p0(i64 4, ptr %8) #11
  %67 = load ptr, ptr %4, align 8
  ret ptr %67
}