; Function Attrs: null_pointer_is_valid sspstrong uwtable
define internal fastcc void @rfc1867_angle(ptr noundef %0, i32 noundef %1, i1 noundef zeroext %2) unnamed_addr #0 {
  %4 = tail call i32 @tvb_get_ntohl(ptr noundef %0, i32 noundef %1)
  %5 = icmp sgt i32 %4, -1
  %6 = sub nuw i32 -2147483648, %4
  %7 = select i1 %2, i32 87, i32 83
  %8 = and i32 %4, 2147483647
  %9 = select i1 %2, i32 69, i32 78
  %.022 = select i1 %5, i32 %7, i32 %9
  %.021 = select i1 %5, i32 %6, i32 %8
  br i1 %2, label %10, label %12

10:                                               ; preds = %3
  %11 = icmp ugt i32 %.021, 648000000
  br i1 %11, label %14, label %16

12:                                               ; preds = %3
  %13 = icmp ugt i32 %.021, 324000000
  br i1 %13, label %14, label %16

14:                                               ; preds = %12, %10
  %15 = tail call i32 (ptr, i64, i32, i64, ptr, ...) @__snprintf_chk(ptr noundef nonnull @rfc1867_angle.buf, i64 noundef 35, i32 noundef 2, i64 noundef 35, ptr noundef nonnull @.str.1328)
  br label %24

16:                                               ; preds = %12, %10
  %17 = urem i32 %.021, 1000
  %18 = udiv i32 %.021, 1000
  %19 = urem i32 %18, 60
  %20 = udiv i32 %.021, 60000
  %.lhs.trunc = trunc nuw i32 %20 to i16
  %21 = urem i16 %.lhs.trunc, 60
  %.zext = zext nneg i16 %21 to i32
  %22 = udiv i32 %.021, 3600000
  %23 = tail call i32 (ptr, i64, i32, i64, ptr, ...) @__snprintf_chk(ptr noundef nonnull @rfc1867_angle.buf, i64 noundef 35, i32 noundef 2, i64 noundef 35, ptr noundef nonnull @.str.1329, i32 noundef %22, i32 noundef %.zext, i32 noundef %19, i32 noundef %17, i32 noundef %.022)
  br label %24

24:                                               ; preds = %16, %14
  ret void
}